Certificate:
    Data:
        Version: 3 (0x2)
        Serial Number:
            fa:99:5c:f3:b0:e5:82:04:83:b6:e0:a1:e2:27:cd:91
    Signature Algorithm: sha256WithRSAEncryption
        Issuer: CN=zhouxiaolongca
        Validity
            Not Before: May 15 04:06:04 2023 GMT
            Not After : Aug 17 04:06:04 2025 GMT
        Subject: CN=server
        Subject Public Key Info:
            Public Key Algorithm: rsaEncryption
                Public-Key: (2048 bit)
                Modulus:
                    00:e3:12:48:87:58:a5:36:9a:e6:3b:4e:92:70:ed:
                    4f:28:90:76:af:1d:92:c7:e5:73:e4:03:04:a0:71:
                    84:87:13:8d:ea:e1:f3:8b:c6:8e:09:ae:a9:ff:14:
                    1c:32:ae:3a:84:07:63:bd:de:79:3f:f7:19:d3:3e:
                    24:0a:e0:4a:89:90:52:ef:87:ec:e7:1a:42:89:25:
                    c5:41:57:09:26:c9:c7:05:77:4a:1b:b4:49:3f:26:
                    87:84:3b:61:bc:4e:61:7e:c7:e1:71:7d:2a:27:9b:
                    dc:2c:35:c8:e5:47:a6:05:21:1e:c1:d0:f8:c2:cc:
                    04:58:e4:1d:16:30:4e:ec:6a:82:f0:28:2c:80:b6:
                    89:6f:0a:d7:8b:86:47:1b:65:03:a1:bf:8c:7a:e0:
                    8a:23:c1:79:1b:53:1c:c9:e7:e6:d0:da:a7:ba:e4:
                    24:98:8e:e6:46:c6:c3:ea:ce:53:0e:ec:9d:d0:73:
                    07:12:83:9a:dc:64:98:8b:24:f5:fa:df:16:84:96:
                    fe:90:a0:f0:52:fc:c8:b7:43:74:aa:51:b8:4a:3a:
                    e4:64:eb:dc:a8:03:54:d3:7d:a9:eb:80:c8:17:ed:
                    19:b7:c4:13:84:89:f1:72:94:3e:cd:13:3b:d7:a0:
                    0d:13:2c:a1:89:6f:0b:47:c5:db:93:69:fa:80:de:
                    7c:bf
                Exponent: 65537 (0x10001)
        X509v3 extensions:
            X509v3 Basic Constraints: 
                CA:FALSE
            X509v3 Subject Key Identifier: 
                56:D4:31:B5:F2:F4:E2:60:A9:43:E1:19:AC:3B:6A:0A:37:95:7C:06
            X509v3 Authority Key Identifier: 
                keyid:34:95:D7:D1:1F:75:33:33:C6:7C:DA:09:C9:E8:5B:50:ED:CD:20:27
                DirName:/CN=zhouxiaolongca
                serial:88:04:BB:1D:65:49:92:98

            X509v3 Extended Key Usage: 
                TLS Web Server Authentication
            X509v3 Key Usage: 
                Digital Signature, Key Encipherment
            X509v3 Subject Alternative Name: 
                DNS:server
    Signature Algorithm: sha256WithRSAEncryption
         3d:77:b1:0b:7f:2e:49:c7:6e:ca:2f:71:c0:e7:c1:ba:57:22:
         44:b1:5c:86:2f:93:4d:bc:e7:76:e2:f7:54:eb:67:2f:f4:c3:
         ef:57:3d:f0:03:2d:80:77:f5:8e:fe:8d:83:d6:98:c8:db:b6:
         40:27:45:09:2d:0d:3d:13:ef:70:71:85:2d:3d:9e:92:1c:9e:
         a8:f2:c4:1d:41:3b:aa:b5:f1:89:2d:22:ae:4d:c3:7f:41:a8:
         b8:27:ae:6d:eb:7e:93:b4:17:05:72:dc:aa:ab:64:11:8e:1e:
         ec:da:eb:93:db:97:a6:2e:ae:b4:1f:b2:e4:76:b3:5c:6c:2b:
         44:03:a9:58:8c:22:f0:ae:f8:6d:83:56:25:9b:52:af:71:a2:
         41:80:de:1f:30:59:ab:79:37:29:8f:76:b7:5c:cf:5d:c1:49:
         00:6d:90:bf:fa:68:53:79:07:7c:33:cf:ee:f0:39:32:2d:e5:
         8c:aa:a2:c8:e7:c5:58:e6:6e:35:73:d5:69:de:3f:ea:a1:ee:
         e2:4c:55:54:65:29:c6:26:a9:37:d1:8d:a4:03:97:fb:8e:cf:
         e8:58:cd:05:6a:9a:01:f5:48:6f:e7:54:c6:27:fe:31:a9:7d:
         b3:0d:fd:53:db:e7:cc:16:12:d5:36:5e:e4:59:79:78:a9:40:
         35:05:78:54
-----BEGIN CERTIFICATE-----
MIIDYzCCAkugAwIBAgIRAPqZXPOw5YIEg7bgoeInzZEwDQYJKoZIhvcNAQELBQAw
GTEXMBUGA1UEAwwOemhvdXhpYW9sb25nY2EwHhcNMjMwNTE1MDQwNjA0WhcNMjUw
ODE3MDQwNjA0WjARMQ8wDQYDVQQDDAZzZXJ2ZXIwggEiMA0GCSqGSIb3DQEBAQUA
A4IBDwAwggEKAoIBAQDjEkiHWKU2muY7TpJw7U8okHavHZLH5XPkAwSgcYSHE43q
4fOLxo4Jrqn/FBwyrjqEB2O93nk/9xnTPiQK4EqJkFLvh+znGkKJJcVBVwkmyccF
d0obtEk/JoeEO2G8TmF+x+FxfSonm9wsNcjlR6YFIR7B0PjCzARY5B0WME7saoLw
KCyAtolvCteLhkcbZQOhv4x64IojwXkbUxzJ5+bQ2qe65CSYjuZGxsPqzlMO7J3Q
cwcSg5rcZJiLJPX63xaElv6QoPBS/Mi3Q3SqUbhKOuRk69yoA1TTfanrgMgX7Rm3
xBOEifFylD7NEzvXoA0TLKGJbwtHxduTafqA3ny/AgMBAAGjga0wgaowCQYDVR0T
BAIwADAdBgNVHQ4EFgQUVtQxtfL04mCpQ+EZrDtqCjeVfAYwSQYDVR0jBEIwQIAU
NJXX0R91MzPGfNoJyehbUO3NICehHaQbMBkxFzAVBgNVBAMMDnpob3V4aWFvbG9u
Z2NhggkAiAS7HWVJkpgwEwYDVR0lBAwwCgYIKwYBBQUHAwEwCwYDVR0PBAQDAgWg
MBEGA1UdEQQKMAiCBnNlcnZlcjANBgkqhkiG9w0BAQsFAAOCAQEAPXexC38uScdu
yi9xwOfBulciRLFchi+TTbznduL3VOtnL/TD71c98AMtgHf1jv6Ng9aYyNu2QCdF
CS0NPRPvcHGFLT2ekhyeqPLEHUE7qrXxiS0irk3Df0GouCeubet+k7QXBXLcqqtk
EY4e7Nrrk9uXpi6utB+y5HazXGwrRAOpWIwi8K74bYNWJZtSr3GiQYDeHzBZq3k3
KY92t1zPXcFJAG2Qv/poU3kHfDPP7vA5Mi3ljKqiyOfFWOZuNXPVad4/6qHu4kxV
VGUpxiapN9GNpAOX+47P6FjNBWqaAfVIb+dUxif+Mal9sw39U9vnzBYS1TZe5Fl5
eKlANQV4VA==
-----END CERTIFICATE-----
